; Function Attrs: nofree norecurse nosync nounwind memory(readwrite, inaccessiblemem: none) uwtable
define void @OSQPVectorf_set_scalar_if_gt(ptr nocapture noundef readonly %0, ptr nocapture noundef readonly %1, double noundef %2, double noundef %3) local_unnamed_addr #7 {
  %5 = getelementptr inbounds i8, ptr %0, i64 8
  %6 = load i64, ptr %5, align 8
  %7 = load ptr, ptr %0, align 8
  %8 = load ptr, ptr %1, align 8
  %9 = icmp sgt i64 %6, 0
  br i1 %9, label %.lr.ph, label %._crit_edge

.lr.ph:                                           ; preds = %4, %.lr.ph
  %.014 = phi i64 [ %14, %.lr.ph ], [ 0, %4 ]
  %10 = getelementptr inbounds double, ptr %8, i64 %.014
  %11 = load double, ptr %10, align 8
  %12 = fcmp ogt double %11, %2
  %. = select i1 %12, double %3, double %11
  %13 = getelementptr inbounds double, ptr %7, i64 %.014
  store double %., ptr %13, align 8
  %14 = add nuw nsw i64 %.014, 1
  %exitcond.not = icmp eq i64 %14, %6
  br i1 %exitcond.not, label %._crit_edge, label %.lr.ph, !llvm.loop !47

._crit_edge:                                      ; preds = %.lr.ph, %4
  ret void
}